target datalayout = "e-m:e-p270:32:32-p271:32:32-p272:64:64-i64:64-i128:128-f80:128-n8:16:32:64-S128"
target triple = "x86_64-pc-linux-gnu"

%struct.StringSlice_ = type { ptr, i64 }

@.str.28 = private unnamed_addr constant [3 x i8] c"./\00", align 1
@compiler_exe_name = external global ptr, align 8
@.str.103 = private unnamed_addr constant [38 x i8] c"Failed to extract file name from '%s'\00", align 1
@.str.104 = private unnamed_addr constant [11 x i8] c"__c3exec__\00", align 1
@.str.105 = private unnamed_addr constant [33 x i8] c" compile -g0 --single-module=yes\00", align 1
@.str.106 = private unnamed_addr constant [7 x i8] c" -o %s\00", align 1
@.str.107 = private unnamed_addr constant [31 x i8] c"Failed to compile script '%s'.\00", align 1
@.str.108 = private unnamed_addr constant [2 x i8] c" \00", align 1
@.str.109 = private unnamed_addr constant [46 x i8] c"Error invoking script '%s' with arguments %s.\00", align 1

; Function Attrs: nounwind uwtable
define internal { ptr, i64 } @slice_from_string(ptr noundef %0) #0 {
  %2 = alloca %struct.StringSlice_, align 8
  %3 = alloca ptr, align 8
  store ptr %0, ptr %3, align 8
  %4 = getelementptr inbounds %struct.StringSlice_, ptr %2, i32 0, i32 0
  %5 = load ptr, ptr %3, align 8
  store ptr %5, ptr %4, align 8
  %6 = getelementptr inbounds %struct.StringSlice_, ptr %2, i32 0, i32 1
  %7 = load ptr, ptr %3, align 8
  %8 = call i64 @strlen(ptr noundef %7) #10
  store i64 %8, ptr %6, align 8
  %9 = load { ptr, i64 }, ptr %2, align 8
  ret { ptr, i64 } %9
}

; Function Attrs: nounwind uwtable
define dso_local ptr @compile_and_invoke(ptr noundef %0, ptr noundef %1) #0 {
  %3 = alloca ptr, align 8
  %4 = alloca ptr, align 8
  %5 = alloca ptr, align 8
  %6 = alloca ptr, align 8
  %7 = alloca ptr, align 8
  %8 = alloca %struct.StringSlice_, align 8
  %9 = alloca %struct.StringSlice_, align 8
  %10 = alloca ptr, align 8
  store ptr %0, ptr %3, align 8
  store ptr %1, ptr %4, align 8
  %11 = load ptr, ptr @compiler_exe_name, align 8
  %12 = call zeroext i1 @file_namesplit(ptr noundef %11, ptr noundef %5, ptr noundef null)
  br i1 %12, label %15, label %13

13:                                               ; preds = %2
  %14 = load ptr, ptr @compiler_exe_name, align 8
  call void (ptr, ...) @error_exit(ptr noundef @.str.103, ptr noundef %14) #8
  unreachable

15:                                               ; preds = %2
  %16 = call ptr @find_executable_path()
  %17 = load ptr, ptr %5, align 8
  %18 = call ptr @file_append_path(ptr noundef %16, ptr noundef %17)
  store ptr %18, ptr %6, align 8
  call void @scratch_buffer_clear()
  %19 = load ptr, ptr %6, align 8
  call void @scratch_buffer_append(ptr noundef %19)
  store ptr @.str.104, ptr %7, align 8
  call void @scratch_buffer_append(ptr noundef @.str.105)
  %20 = load ptr, ptr %3, align 8
  %21 = call { ptr, i64 } @slice_from_string(ptr noundef %20)
  %22 = getelementptr inbounds { ptr, i64 }, ptr %8, i32 0, i32 0
  %23 = extractvalue { ptr, i64 } %21, 0
  store ptr %23, ptr %22, align 8
  %24 = getelementptr inbounds { ptr, i64 }, ptr %8, i32 0, i32 1
  %25 = extractvalue { ptr, i64 } %21, 1
  store i64 %25, ptr %24, align 8
  br label %26

26:                                               ; preds = %40, %39, %15
  %27 = getelementptr inbounds %struct.StringSlice_, ptr %8, i32 0, i32 1
  %28 = load i64, ptr %27, align 8
  %29 = icmp ugt i64 %28, 0
  br i1 %29, label %30, label %45

30:                                               ; preds = %26
  %31 = call { ptr, i64 } @slice_next_token(ptr noundef %8, i8 noundef signext 59)
  %32 = getelementptr inbounds { ptr, i64 }, ptr %9, i32 0, i32 0
  %33 = extractvalue { ptr, i64 } %31, 0
  store ptr %33, ptr %32, align 8
  %34 = getelementptr inbounds { ptr, i64 }, ptr %9, i32 0, i32 1
  %35 = extractvalue { ptr, i64 } %31, 1
  store i64 %35, ptr %34, align 8
  %36 = getelementptr inbounds %struct.StringSlice_, ptr %9, i32 0, i32 1
  %37 = load i64, ptr %36, align 8
  %38 = icmp ne i64 %37, 0
  br i1 %38, label %40, label %39

39:                                               ; preds = %30
  br label %26, !llvm.loop !34

40:                                               ; preds = %30
  call void @scratch_buffer_append_char(i8 noundef signext 32)
  %41 = getelementptr inbounds %struct.StringSlice_, ptr %9, i32 0, i32 0
  %42 = load ptr, ptr %41, align 8
  %43 = getelementptr inbounds %struct.StringSlice_, ptr %9, i32 0, i32 1
  %44 = load i64, ptr %43, align 8
  call void @scratch_buffer_append_len(ptr noundef %42, i64 noundef %44)
  br label %26, !llvm.loop !34

45:                                               ; preds = %26
  %46 = load ptr, ptr %7, align 8
  call void (ptr, ...) @scratch_buffer_printf(ptr noundef @.str.106, ptr noundef %46)
  %47 = call ptr @scratch_buffer_to_string()
  %48 = call zeroext i1 @execute_cmd_failable(ptr noundef %47, ptr noundef %10)
  br i1 %48, label %51, label %49

49:                                               ; preds = %45
  %50 = load ptr, ptr %3, align 8
  call void (ptr, ...) @error_exit(ptr noundef @.str.107, ptr noundef %50) #8
  unreachable

51:                                               ; preds = %45
  br label %52

52:                                               ; preds = %51
  br label %53

53:                                               ; preds = %52
  call void @scratch_buffer_clear()
  call void @scratch_buffer_append(ptr noundef @.str.28)
  %54 = load ptr, ptr %7, align 8
  call void @scratch_buffer_append(ptr noundef %54)
  call void @scratch_buffer_append(ptr noundef @.str.108)
  %55 = load ptr, ptr %4, align 8
  call void @scratch_buffer_append(ptr noundef %55)
  %56 = call ptr @scratch_buffer_to_string()
  %57 = call zeroext i1 @execute_cmd_failable(ptr noundef %56, ptr noundef %10)
  br i1 %57, label %61, label %58

58:                                               ; preds = %53
  %59 = load ptr, ptr %3, align 8
  %60 = load ptr, ptr %4, align 8
  call void (ptr, ...) @error_exit(ptr noundef @.str.109, ptr noundef %59, ptr noundef %60) #8
  unreachable

61:                                               ; preds = %53
  %62 = load ptr, ptr %7, align 8
  %63 = call zeroext i1 @file_delete_file(ptr noundef %62)
  %64 = load ptr, ptr %3, align 8
  %65 = load ptr, ptr %10, align 8
  %66 = call ptr @source_file_text_load(ptr noundef %64, ptr noundef %65)
  ret ptr %66
}