; Function Attrs: nounwind uwtable
define dso_local ptr @compile_and_invoke(ptr noundef %0, ptr noundef %1) local_unnamed_addr #0 {
  %3 = alloca ptr, align 8
  %4 = alloca %struct.StringSlice_, align 8
  %5 = alloca ptr, align 8
  %6 = load ptr, ptr @compiler_exe_name, align 8
  %7 = call zeroext i1 @file_namesplit(ptr noundef %6, ptr noundef nonnull %3, ptr noundef null) #20
  br i1 %7, label %10, label %8

8:                                                ; preds = %2
  %9 = load ptr, ptr @compiler_exe_name, align 8
  call void (ptr, ...) @error_exit(ptr noundef nonnull @.str.103, ptr noundef %9) #21
  unreachable

10:                                               ; preds = %2
  %11 = call ptr @find_executable_path() #20
  %12 = load ptr, ptr %3, align 8
  %13 = call ptr @file_append_path(ptr noundef %11, ptr noundef %12) #20
  call void @scratch_buffer_clear() #20
  call void @scratch_buffer_append(ptr noundef %13) #20
  call void @scratch_buffer_append(ptr noundef nonnull @.str.105) #20
  %14 = call i64 @strlen(ptr noundef nonnull dereferenceable(1) %0) #22
  store ptr %0, ptr %4, align 8
  %15 = getelementptr inbounds i8, ptr %4, i64 8
  store i64 %14, ptr %15, align 8
  %.not12 = icmp eq i64 %14, 0
  br i1 %.not12, label %._crit_edge, label %.lr.ph

thread-pre-split:                                 ; preds = %18, %.lr.ph
  %.pr = load i64, ptr %15, align 8
  %.not = icmp eq i64 %.pr, 0
  br i1 %.not, label %._crit_edge, label %.lr.ph

.lr.ph:                                           ; preds = %10, %thread-pre-split
  %16 = call { ptr, i64 } @slice_next_token(ptr noundef nonnull %4, i8 noundef signext 59) #20
  %17 = extractvalue { ptr, i64 } %16, 1
  %.not11 = icmp eq i64 %17, 0
  br i1 %.not11, label %thread-pre-split, label %18, !llvm.loop !34

18:                                               ; preds = %.lr.ph
  %19 = extractvalue { ptr, i64 } %16, 0
  call void @scratch_buffer_append_char(i8 noundef signext 32) #20
  call void @scratch_buffer_append_len(ptr noundef %19, i64 noundef %17) #20
  br label %thread-pre-split, !llvm.loop !34

._crit_edge:                                      ; preds = %thread-pre-split, %10
  call void (ptr, ...) @scratch_buffer_printf(ptr noundef nonnull @.str.106, ptr noundef nonnull @.str.104) #20
  %20 = call ptr @scratch_buffer_to_string() #20
  %21 = call zeroext i1 @execute_cmd_failable(ptr noundef %20, ptr noundef nonnull %5) #20
  br i1 %21, label %23, label %22

22:                                               ; preds = %._crit_edge
  call void (ptr, ...) @error_exit(ptr noundef nonnull @.str.107, ptr noundef %0) #21
  unreachable

23:                                               ; preds = %._crit_edge
  call void @scratch_buffer_clear() #20
  call void @scratch_buffer_append(ptr noundef nonnull @.str.28) #20
  call void @scratch_buffer_append(ptr noundef nonnull @.str.104) #20
  call void @scratch_buffer_append(ptr noundef nonnull @.str.108) #20
  call void @scratch_buffer_append(ptr noundef %1) #20
  %24 = call ptr @scratch_buffer_to_string() #20
  %25 = call zeroext i1 @execute_cmd_failable(ptr noundef %24, ptr noundef nonnull %5) #20
  br i1 %25, label %27, label %26

26:                                               ; preds = %23
  call void (ptr, ...) @error_exit(ptr noundef nonnull @.str.109, ptr noundef %0, ptr noundef %1) #21
  unreachable

27:                                               ; preds = %23
  %28 = call zeroext i1 @file_delete_file(ptr noundef nonnull @.str.104) #20
  %29 = load ptr, ptr %5, align 8
  %30 = call ptr @source_file_text_load(ptr noundef %0, ptr noundef %29) #20
  ret ptr %30
}